target datalayout = "e-m:e-p270:32:32-p271:32:32-p272:64:64-i64:64-i128:128-f80:128-n8:16:32:64-S128"
target triple = "x86_64-pc-linux-gnu"

; Function Attrs: inlinehint nounwind uwtable
define internal void @quantize_bands(ptr noundef %0, ptr noundef %1, ptr noundef %2, i32 noundef %3, i32 noundef %4, i32 noundef %5, float noundef %6, float noundef %7) #6 {
  %9 = alloca ptr, align 8
  %10 = alloca ptr, align 8
  %11 = alloca ptr, align 8
  %12 = alloca i32, align 4
  %13 = alloca i32, align 4
  %14 = alloca i32, align 4
  %15 = alloca float, align 4
  %16 = alloca float, align 4
  %17 = alloca i32, align 4
  %18 = alloca float, align 4
  %19 = alloca i32, align 4
  store ptr %0, ptr %9, align 8, !tbaa !92
  store ptr %1, ptr %10, align 8, !tbaa !108
  store ptr %2, ptr %11, align 8, !tbaa !108
  store i32 %3, ptr %12, align 4, !tbaa !55
  store i32 %4, ptr %13, align 4, !tbaa !55
  store i32 %5, ptr %14, align 4, !tbaa !55
  store float %6, ptr %15, align 4, !tbaa !112
  store float %7, ptr %16, align 4, !tbaa !112
  call void @llvm.lifetime.start.p0(i64 4, ptr %17) #11
  store i32 0, ptr %17, align 4, !tbaa !55
  br label %20

20:                                               ; preds = %67, %8
  %21 = load i32, ptr %17, align 4, !tbaa !55
  %22 = load i32, ptr %12, align 4, !tbaa !55
  %23 = icmp slt i32 %21, %22
  br i1 %23, label %25, label %24

24:                                               ; preds = %20
  call void @llvm.lifetime.end.p0(i64 4, ptr %17) #11
  br label %70

25:                                               ; preds = %20
  call void @llvm.lifetime.start.p0(i64 4, ptr %18) #11
  %26 = load ptr, ptr %11, align 8, !tbaa !108
  %27 = load i32, ptr %17, align 4, !tbaa !55
  %28 = sext i32 %27 to i64
  %29 = getelementptr inbounds float, ptr %26, i64 %28
  %30 = load float, ptr %29, align 4, !tbaa !112
  %31 = load float, ptr %15, align 4, !tbaa !112
  %32 = fmul nsz float %30, %31
  store float %32, ptr %18, align 4, !tbaa !112
  call void @llvm.lifetime.start.p0(i64 4, ptr %19) #11
  %33 = load float, ptr %18, align 4, !tbaa !112
  %34 = load float, ptr %16, align 4, !tbaa !112
  %35 = fadd nsz float %33, %34
  %36 = load i32, ptr %14, align 4, !tbaa !55
  %37 = sitofp i32 %36 to float
  %38 = fcmp nsz ogt float %35, %37
  br i1 %38, label %39, label %42

39:                                               ; preds = %25
  %40 = load i32, ptr %14, align 4, !tbaa !55
  %41 = sitofp i32 %40 to float
  br label %46

42:                                               ; preds = %25
  %43 = load float, ptr %18, align 4, !tbaa !112
  %44 = load float, ptr %16, align 4, !tbaa !112
  %45 = fadd nsz float %43, %44
  br label %46

46:                                               ; preds = %42, %39
  %47 = phi nsz float [ %41, %39 ], [ %45, %42 ]
  %48 = fptosi float %47 to i32
  store i32 %48, ptr %19, align 4, !tbaa !55
  %49 = load i32, ptr %13, align 4, !tbaa !55
  %50 = icmp ne i32 %49, 0
  br i1 %50, label %51, label %61

51:                                               ; preds = %46
  %52 = load ptr, ptr %10, align 8, !tbaa !108
  %53 = load i32, ptr %17, align 4, !tbaa !55
  %54 = sext i32 %53 to i64
  %55 = getelementptr inbounds float, ptr %52, i64 %54
  %56 = load float, ptr %55, align 4, !tbaa !112
  %57 = fcmp nsz olt float %56, 0.000000e+00
  br i1 %57, label %58, label %61

58:                                               ; preds = %51
  %59 = load i32, ptr %19, align 4, !tbaa !55
  %60 = sub nsw i32 0, %59
  store i32 %60, ptr %19, align 4, !tbaa !55
  br label %61

61:                                               ; preds = %58, %51, %46
  %62 = load i32, ptr %19, align 4, !tbaa !55
  %63 = load ptr, ptr %9, align 8, !tbaa !92
  %64 = load i32, ptr %17, align 4, !tbaa !55
  %65 = sext i32 %64 to i64
  %66 = getelementptr inbounds i32, ptr %63, i64 %65
  store i32 %62, ptr %66, align 4, !tbaa !55
  call void @llvm.lifetime.end.p0(i64 4, ptr %19) #11
  call void @llvm.lifetime.end.p0(i64 4, ptr %18) #11
  br label %67

67:                                               ; preds = %61
  %68 = load i32, ptr %17, align 4, !tbaa !55
  %69 = add nsw i32 %68, 1
  store i32 %69, ptr %17, align 4, !tbaa !55
  br label %20, !llvm.loop !196

70:                                               ; preds = %24
  ret void
}