; Function Attrs: inlinehint nofree norecurse nosync nounwind memory(argmem: readwrite) uwtable
define internal void @quantize_bands(ptr noundef writeonly captures(none) %0, ptr noundef readonly captures(none) %1, ptr noundef readonly captures(none) %2, i32 noundef %3, i32 noundef %4, i32 noundef %5, float noundef %6, float noundef %7) #8 {
  %9 = icmp sgt i32 %3, 0
  br i1 %9, label %.lr.ph, label %._crit_edge

.lr.ph:                                           ; preds = %8
  %10 = sitofp i32 %5 to float
  %.not = icmp eq i32 %4, 0
  %wide.trip.count27 = zext nneg i32 %3 to i64
  br i1 %.not, label %.lr.ph.split.us, label %.lr.ph.split

.lr.ph.split.us:                                  ; preds = %.lr.ph, %.lr.ph.split.us
  %indvars.iv24 = phi i64 [ %indvars.iv.next25, %.lr.ph.split.us ], [ 0, %.lr.ph ]
  %11 = getelementptr inbounds nuw float, ptr %2, i64 %indvars.iv24
  %12 = load float, ptr %11, align 4, !tbaa !104
  %13 = fmul nsz float %6, %12
  %14 = fadd nsz float %7, %13
  %15 = fcmp nsz ogt float %14, %10
  %..us = select nsz i1 %15, float %10, float %14
  %16 = fptosi float %..us to i32
  %17 = getelementptr inbounds nuw i32, ptr %0, i64 %indvars.iv24
  store i32 %16, ptr %17, align 4, !tbaa !65
  %indvars.iv.next25 = add nuw nsw i64 %indvars.iv24, 1
  %exitcond28.not = icmp eq i64 %indvars.iv.next25, %wide.trip.count27
  br i1 %exitcond28.not, label %._crit_edge, label %.lr.ph.split.us, !llvm.loop !225

._crit_edge:                                      ; preds = %.lr.ph.split, %.lr.ph.split.us, %8
  ret void

.lr.ph.split:                                     ; preds = %.lr.ph, %.lr.ph.split
  %indvars.iv = phi i64 [ %indvars.iv.next, %.lr.ph.split ], [ 0, %.lr.ph ]
  %18 = getelementptr inbounds nuw float, ptr %2, i64 %indvars.iv
  %19 = load float, ptr %18, align 4, !tbaa !104
  %20 = fmul nsz float %6, %19
  %21 = fadd nsz float %7, %20
  %22 = fcmp nsz ogt float %21, %10
  %. = select nsz i1 %22, float %10, float %21
  %23 = fptosi float %. to i32
  %24 = getelementptr inbounds nuw float, ptr %1, i64 %indvars.iv
  %25 = load float, ptr %24, align 4, !tbaa !104
  %26 = fcmp nsz olt float %25, 0.000000e+00
  %27 = sub nsw i32 0, %23
  %.0 = select i1 %26, i32 %27, i32 %23
  %28 = getelementptr inbounds nuw i32, ptr %0, i64 %indvars.iv
  store i32 %.0, ptr %28, align 4, !tbaa !65
  %indvars.iv.next = add nuw nsw i64 %indvars.iv, 1
  %exitcond.not = icmp eq i64 %indvars.iv.next, %wide.trip.count27
  br i1 %exitcond.not, label %._crit_edge, label %.lr.ph.split, !llvm.loop !225
}